; ModuleID = '55/401.c'
source_filename = "55/401.c"
target datalayout = "e-m:e-p270:32:32-p271:32:32-p272:64:64-i64:64-f80:128-n8:16:32:64-S128"
target triple = "x86_64-pc-linux-gnu"

@.str = private unnamed_addr constant [7 x i8] c"%d%s%d\00", align 1
@.str.1 = private unnamed_addr constant [3 x i8] c"%c\00", align 1

; Function Attrs: noinline nounwind uwtable
define dso_local i32 @main() #0 {
  %1 = alloca i32, align 4
  %2 = alloca i32, align 4
  %3 = alloca i32, align 4
  %4 = alloca i32, align 4
  %5 = alloca i32, align 4
  %6 = alloca i32, align 4
  %7 = alloca [100 x i8], align 16
  %8 = alloca i64, align 8
  store i32 0, i32* %1, align 4
  %9 = getelementptr inbounds [100 x i8], [100 x i8]* %7, i64 0, i64 0
  %10 = call i32 (i8*, ...) @__isoc99_scanf(i8* getelementptr inbounds ([7 x i8], [7 x i8]* @.str, i64 0, i64 0), i32* %2, i8* %9, i32* %3)
  %11 = getelementptr inbounds [100 x i8], [100 x i8]* %7, i64 0, i64 0
  %12 = call i64 @strlen(i8* %11) #3
  %13 = trunc i64 %12 to i32
  store i32 %13, i32* %4, align 4
  store i32 0, i32* %5, align 4
  store i64 0, i64* %8, align 8
  br label %14

14:                                               ; preds = %46, %0
  %15 = load i32, i32* %5, align 4
  %16 = load i32, i32* %4, align 4
  %17 = sub nsw i32 %16, 1
  %18 = icmp sle i32 %15, %17
  br i1 %18, label %19, label %49

19:                                               ; preds = %14
  %20 = load i32, i32* %5, align 4
  %21 = load i32, i32* %4, align 4
  %22 = sub nsw i32 %21, 1
  %23 = icmp slt i32 %20, %22
  br i1 %23, label %24, label %36

24:                                               ; preds = %19
  %25 = load i64, i64* %8, align 8
  %26 = load i32, i32* %5, align 4
  %27 = sext i32 %26 to i64
  %28 = getelementptr inbounds [100 x i8], [100 x i8]* %7, i64 0, i64 %27
  %29 = load i8, i8* %28, align 1
  %30 = call i32 @zhuan(i8 signext %29)
  %31 = sext i32 %30 to i64
  %32 = add nsw i64 %25, %31
  %33 = load i32, i32* %2, align 4
  %34 = sext i32 %33 to i64
  %35 = mul nsw i64 %32, %34
  store i64 %35, i64* %8, align 8
  br label %45

36:                                               ; preds = %19
  %37 = load i64, i64* %8, align 8
  %38 = load i32, i32* %5, align 4
  %39 = sext i32 %38 to i64
  %40 = getelementptr inbounds [100 x i8], [100 x i8]* %7, i64 0, i64 %39
  %41 = load i8, i8* %40, align 1
  %42 = call i32 @zhuan(i8 signext %41)
  %43 = sext i32 %42 to i64
  %44 = add nsw i64 %37, %43
  store i64 %44, i64* %8, align 8
  br label %45

45:                                               ; preds = %36, %24
  br label %46

46:                                               ; preds = %45
  %47 = load i32, i32* %5, align 4
  %48 = add nsw i32 %47, 1
  store i32 %48, i32* %5, align 4
  br label %14

49:                                               ; preds = %14
  store i32 0, i32* %5, align 4
  br label %50

50:                                               ; preds = %80, %49
  %51 = load i64, i64* %8, align 8
  %52 = load i32, i32* %3, align 4
  %53 = sext i32 %52 to i64
  %54 = srem i64 %51, %53
  %55 = trunc i64 %54 to i32
  store i32 %55, i32* %6, align 4
  %56 = load i32, i32* %6, align 4
  %57 = icmp sge i32 %56, 10
  br i1 %57, label %58, label %66

58:                                               ; preds = %50
  %59 = load i32, i32* %6, align 4
  %60 = sub nsw i32 %59, 10
  %61 = add nsw i32 %60, 65
  %62 = trunc i32 %61 to i8
  %63 = load i32, i32* %5, align 4
  %64 = sext i32 %63 to i64
  %65 = getelementptr inbounds [100 x i8], [100 x i8]* %7, i64 0, i64 %64
  store i8 %62, i8* %65, align 1
  br label %73

66:                                               ; preds = %50
  %67 = load i32, i32* %6, align 4
  %68 = add nsw i32 %67, 48
  %69 = trunc i32 %68 to i8
  %70 = load i32, i32* %5, align 4
  %71 = sext i32 %70 to i64
  %72 = getelementptr inbounds [100 x i8], [100 x i8]* %7, i64 0, i64 %71
  store i8 %69, i8* %72, align 1
  br label %73

73:                                               ; preds = %66, %58
  %74 = load i64, i64* %8, align 8
  %75 = load i32, i32* %3, align 4
  %76 = sext i32 %75 to i64
  %77 = icmp slt i64 %74, %76
  br i1 %77, label %78, label %79

78:                                               ; preds = %73
  br label %87

79:                                               ; preds = %73
  br label %80

80:                                               ; preds = %79
  %81 = load i64, i64* %8, align 8
  %82 = load i32, i32* %3, align 4
  %83 = sext i32 %82 to i64
  %84 = sdiv i64 %81, %83
  store i64 %84, i64* %8, align 8
  %85 = load i32, i32* %5, align 4
  %86 = add nsw i32 %85, 1
  store i32 %86, i32* %5, align 4
  br label %50

87:                                               ; preds = %78
  %88 = load i32, i32* %5, align 4
  store i32 %88, i32* %5, align 4
  br label %89

89:                                               ; preds = %99, %87
  %90 = load i32, i32* %5, align 4
  %91 = icmp sge i32 %90, 0
  br i1 %91, label %92, label %102

92:                                               ; preds = %89
  %93 = load i32, i32* %5, align 4
  %94 = sext i32 %93 to i64
  %95 = getelementptr inbounds [100 x i8], [100 x i8]* %7, i64 0, i64 %94
  %96 = load i8, i8* %95, align 1
  %97 = sext i8 %96 to i32
  %98 = call i32 (i8*, ...) @printf(i8* getelementptr inbounds ([3 x i8], [3 x i8]* @.str.1, i64 0, i64 0), i32 %97)
  br label %99

99:                                               ; preds = %92
  %100 = load i32, i32* %5, align 4
  %101 = add nsw i32 %100, -1
  store i32 %101, i32* %5, align 4
  br label %89

102:                                              ; preds = %89
  ret i32 0
}

declare dso_local i32 @__isoc99_scanf(i8*, ...) #1

; Function Attrs: nounwind readonly
declare dso_local i64 @strlen(i8*) #2

; Function Attrs: noinline nounwind uwtable
define dso_local i32 @zhuan(i8 signext %0) #0 {
  %2 = alloca i8, align 1
  %3 = alloca i32, align 4
  store i8 %0, i8* %2, align 1
  %4 = load i8, i8* %2, align 1
  %5 = sext i8 %4 to i32
  %6 = icmp sge i32 %5, 48
  br i1 %6, label %7, label %15

7:                                                ; preds = %1
  %8 = load i8, i8* %2, align 1
  %9 = sext i8 %8 to i32
  %10 = icmp sle i32 %9, 57
  br i1 %10, label %11, label %15

11:                                               ; preds = %7
  %12 = load i8, i8* %2, align 1
  %13 = sext i8 %12 to i32
  %14 = sub nsw i32 %13, 48
  store i32 %14, i32* %3, align 4
  br label %15

15:                                               ; preds = %11, %7, %1
  %16 = load i8, i8* %2, align 1
  %17 = sext i8 %16 to i32
  %18 = icmp sge i32 %17, 97
  br i1 %18, label %19, label %28

19:                                               ; preds = %15
  %20 = load i8, i8* %2, align 1
  %21 = sext i8 %20 to i32
  %22 = icmp sle i32 %21, 122
  br i1 %22, label %23, label %28

23:                                               ; preds = %19
  %24 = load i8, i8* %2, align 1
  %25 = sext i8 %24 to i32
  %26 = add nsw i32 10, %25
  %27 = sub nsw i32 %26, 97
  store i32 %27, i32* %3, align 4
  br label %28

28:                                               ; preds = %23, %19, %15
  %29 = load i8, i8* %2, align 1
  %30 = sext i8 %29 to i32
  %31 = icmp sge i32 %30, 65
  br i1 %31, label %32, label %41

32:                                               ; preds = %28
  %33 = load i8, i8* %2, align 1
  %34 = sext i8 %33 to i32
  %35 = icmp sle i32 %34, 90
  br i1 %35, label %36, label %41

36:                                               ; preds = %32
  %37 = load i8, i8* %2, align 1
  %38 = sext i8 %37 to i32
  %39 = add nsw i32 10, %38
  %40 = sub nsw i32 %39, 65
  store i32 %40, i32* %3, align 4
  br label %41

41:                                               ; preds = %36, %32, %28
  %42 = load i32, i32* %3, align 4
  ret i32 %42
}

declare dso_local i32 @printf(i8*, ...) #1


!llvm.module.flags = !{!0}
!llvm.ident = !{!1}

!0 = !{i32 1, !"wchar_size", i32 4}
!1 = !{!"clang version 10.0.0-4ubuntu1 "}
